target datalayout = "e-m:e-p270:32:32-p271:32:32-p272:64:64-i64:64-i128:128-f80:128-n8:16:32:64-S128"
target triple = "x86_64-pc-linux-gnu"

%"class.tbb::detail::d1::small_object_allocator" = type { ptr }
%"class.tbb::detail::d1::task" = type { ptr, %"class.tbb::detail::d1::task_traits", [6 x i64] }
%"class.tbb::detail::d1::task_traits" = type { i64 }
%"class.tbb::detail::d2::task_handle_task" = type { %"class.tbb::detail::d1::task", i64, ptr, ptr, %"class.tbb::detail::d1::small_object_allocator", [32 x i8] }

; Function Attrs: inlinehint mustprogress nounwind
define linkonce_odr dso_local void @_ZN3tbb6detail2d120call_itt_task_notifyENS1_11notify_typeEPv(i32 noundef %0, ptr noundef %1) #7 comdat {
  %3 = alloca i32, align 4
  %4 = alloca ptr, align 8
  store i32 %0, ptr %3, align 4, !tbaa !2009
  store ptr %1, ptr %4, align 8, !tbaa !561
  ret void
}

; Function Attrs: mustprogress nounwind
define linkonce_odr dso_local void @_ZN3tbb6detail2d122small_object_allocator10deallocateINS0_2d216task_handle_taskEEEvPT_(ptr noundef nonnull align 8 dereferenceable(8) %0, ptr noundef %1) #4 comdat align 2 {
  %3 = alloca ptr, align 8
  %4 = alloca ptr, align 8
  store ptr %0, ptr %3, align 8, !tbaa !2620
  store ptr %1, ptr %4, align 8, !tbaa !2630
  %5 = load ptr, ptr %3, align 8
  %6 = load ptr, ptr %4, align 8, !tbaa !2630
  call void @_ZN3tbb6detail2d120call_itt_task_notifyENS1_11notify_typeEPv(i32 noundef 4, ptr noundef %6)
  %7 = getelementptr inbounds nuw %"class.tbb::detail::d1::small_object_allocator", ptr %5, i32 0, i32 0
  %8 = load ptr, ptr %7, align 8, !tbaa !2622
  %9 = load ptr, ptr %4, align 8, !tbaa !2630
  call void @_ZN3tbb6detail2r110deallocateERNS0_2d117small_object_poolEPvm(ptr noundef nonnull align 1 dereferenceable(1) %8, ptr noundef %9, i64 noundef 128)
  ret void
}

; Function Attrs: mustprogress nounwind
define linkonce_odr dso_local void @_ZN3tbb6detail2d122small_object_allocator10deallocateINS0_2d216task_handle_taskEEEvPT_RKNS1_14execution_dataE(ptr noundef nonnull align 8 dereferenceable(8) %0, ptr noundef %1, ptr noundef nonnull align 8 dereferenceable(12) %2) #4 comdat align 2 {
  %4 = alloca ptr, align 8
  %5 = alloca ptr, align 8
  %6 = alloca ptr, align 8
  store ptr %0, ptr %4, align 8, !tbaa !2620
  store ptr %1, ptr %5, align 8, !tbaa !2630
  store ptr %2, ptr %6, align 8, !tbaa !2639
  %7 = load ptr, ptr %4, align 8
  %8 = load ptr, ptr %5, align 8, !tbaa !2630
  call void @_ZN3tbb6detail2d120call_itt_task_notifyENS1_11notify_typeEPv(i32 noundef 4, ptr noundef %8)
  %9 = getelementptr inbounds nuw %"class.tbb::detail::d1::small_object_allocator", ptr %7, i32 0, i32 0
  %10 = load ptr, ptr %9, align 8, !tbaa !2622
  %11 = load ptr, ptr %5, align 8, !tbaa !2630
  %12 = load ptr, ptr %6, align 8, !tbaa !2639
  call void @_ZN3tbb6detail2r110deallocateERNS0_2d117small_object_poolEPvmRKNS2_14execution_dataE(ptr noundef nonnull align 1 dereferenceable(1) %10, ptr noundef %11, i64 noundef 128, ptr noundef nonnull align 8 dereferenceable(12) %12)
  ret void
}

; Function Attrs: mustprogress nounwind
define linkonce_odr dso_local void @_ZN3tbb6detail2d122small_object_allocator13delete_objectINS0_2d216task_handle_taskEEEvPT_(ptr noundef nonnull align 8 dereferenceable(8) %0, ptr noundef %1) #4 comdat align 2 {
  %3 = alloca ptr, align 8
  %4 = alloca ptr, align 8
  %5 = alloca %"class.tbb::detail::d1::small_object_allocator", align 8
  store ptr %0, ptr %3, align 8, !tbaa !2620
  store ptr %1, ptr %4, align 8, !tbaa !2630
  %6 = load ptr, ptr %3, align 8
  call void @llvm.lifetime.start.p0(i64 8, ptr %5) #3
  call void @llvm.memcpy.p0.p0.i64(ptr align 8 %5, ptr align 8 %6, i64 8, i1 false), !tbaa.struct !2637
  %7 = load ptr, ptr %4, align 8, !tbaa !2630
  %8 = load ptr, ptr %7, align 64, !tbaa !394
  %9 = getelementptr inbounds ptr, ptr %8, i64 0
  %10 = load ptr, ptr %9, align 8
  call void %10(ptr noundef nonnull align 64 dereferenceable(96) %7) #3
  %11 = load ptr, ptr %4, align 8, !tbaa !2630
  call void @_ZN3tbb6detail2d122small_object_allocator10deallocateINS0_2d216task_handle_taskEEEvPT_(ptr noundef nonnull align 8 dereferenceable(8) %5, ptr noundef %11)
  call void @llvm.lifetime.end.p0(i64 8, ptr %5) #3
  ret void
}

; Function Attrs: mustprogress nounwind
define linkonce_odr dso_local void @_ZN3tbb6detail2d122small_object_allocator13delete_objectINS0_2d216task_handle_taskEEEvPT_RKNS1_14execution_dataE(ptr noundef nonnull align 8 dereferenceable(8) %0, ptr noundef %1, ptr noundef nonnull align 8 dereferenceable(12) %2) #4 comdat align 2 {
  %4 = alloca ptr, align 8
  %5 = alloca ptr, align 8
  %6 = alloca ptr, align 8
  %7 = alloca %"class.tbb::detail::d1::small_object_allocator", align 8
  store ptr %0, ptr %4, align 8, !tbaa !2620
  store ptr %1, ptr %5, align 8, !tbaa !2630
  store ptr %2, ptr %6, align 8, !tbaa !2639
  %8 = load ptr, ptr %4, align 8
  call void @llvm.lifetime.start.p0(i64 8, ptr %7) #3
  call void @llvm.memcpy.p0.p0.i64(ptr align 8 %7, ptr align 8 %8, i64 8, i1 false), !tbaa.struct !2637
  %9 = load ptr, ptr %5, align 8, !tbaa !2630
  %10 = load ptr, ptr %9, align 64, !tbaa !394
  %11 = getelementptr inbounds ptr, ptr %10, i64 0
  %12 = load ptr, ptr %11, align 8
  call void %12(ptr noundef nonnull align 64 dereferenceable(96) %9) #3
  %13 = load ptr, ptr %5, align 8, !tbaa !2630
  %14 = load ptr, ptr %6, align 8, !tbaa !2639
  call void @_ZN3tbb6detail2d122small_object_allocator10deallocateINS0_2d216task_handle_taskEEEvPT_RKNS1_14execution_dataE(ptr noundef nonnull align 8 dereferenceable(8) %7, ptr noundef %13, ptr noundef nonnull align 8 dereferenceable(12) %14)
  call void @llvm.lifetime.end.p0(i64 8, ptr %7) #3
  ret void
}

; Function Attrs: mustprogress nounwind
define linkonce_odr dso_local void @_ZN3tbb6detail2d216task_handle_task8finalizeEPKNS0_2d114execution_dataE(ptr noundef nonnull align 64 dereferenceable(96) %0, ptr noundef %1) #4 comdat align 2 {
  %3 = alloca ptr, align 8
  %4 = alloca ptr, align 8
  store ptr %0, ptr %3, align 8, !tbaa !2630
  store ptr %1, ptr %4, align 8, !tbaa !2639
  %5 = load ptr, ptr %3, align 8
  %6 = load ptr, ptr %4, align 8, !tbaa !2639
  %7 = icmp ne ptr %6, null
  br i1 %7, label %8, label %11

8:                                                ; preds = %2
  %9 = getelementptr inbounds nuw %"class.tbb::detail::d2::task_handle_task", ptr %5, i32 0, i32 4
  %10 = load ptr, ptr %4, align 8, !tbaa !2639
  call void @_ZN3tbb6detail2d122small_object_allocator13delete_objectINS0_2d216task_handle_taskEEEvPT_RKNS1_14execution_dataE(ptr noundef nonnull align 8 dereferenceable(8) %9, ptr noundef %5, ptr noundef nonnull align 8 dereferenceable(12) %10)
  br label %13

11:                                               ; preds = %2
  %12 = getelementptr inbounds nuw %"class.tbb::detail::d2::task_handle_task", ptr %5, i32 0, i32 4
  call void @_ZN3tbb6detail2d122small_object_allocator13delete_objectINS0_2d216task_handle_taskEEEvPT_(ptr noundef nonnull align 8 dereferenceable(8) %12, ptr noundef %5)
  br label %13

13:                                               ; preds = %11, %8
  ret void
}

; Function Attrs: mustprogress nounwind
define internal noundef ptr @_ZN3tbb6detail2d213function_taskIZN4moldL15new_shared_fileINS3_6X86_64EEEPNS3_10SharedFileIT_EERNS3_7ContextIS7_EERNS3_13ReaderContextEPNS3_10MappedFileEEUlvE_E6cancelERNS0_2d114execution_dataE(ptr noundef nonnull align 64 dereferenceable(112) %0, ptr noundef nonnull align 8 dereferenceable(12) %1) unnamed_addr #4 align 2 {
  %3 = alloca ptr, align 8
  %4 = alloca ptr, align 8
  store ptr %0, ptr %3, align 8, !tbaa !2742
  store ptr %1, ptr %4, align 8, !tbaa !2639
  %5 = load ptr, ptr %3, align 8
  %6 = load ptr, ptr %4, align 8, !tbaa !2639
  call void @_ZN3tbb6detail2d216task_handle_task8finalizeEPKNS0_2d114execution_dataE(ptr noundef nonnull align 64 dereferenceable(96) %5, ptr noundef %6)
  ret ptr null
}